target datalayout = "e-m:e-p270:32:32-p271:32:32-p272:64:64-i64:64-i128:128-f80:128-n8:16:32:64-S128"
target triple = "x86_64-pc-linux-gnu"

%"struct.duckdb_re2::PatchList" = type { i32, i32 }
%"class.duckdb_re2::Compiler" = type <{ %"class.duckdb_re2::Regexp::Walker", ptr, i8, [3 x i8], i32, i8, [7 x i8], %"class.duckdb_re2::PODArray", i32, i32, i64, %"class.std::unordered_map", %"struct.duckdb_re2::Frag", i32, [4 x i8] }>
%"class.duckdb_re2::Regexp::Walker" = type { ptr, %"class.std::stack", i8, i32 }
%"class.std::stack" = type { %"class.std::deque" }
%"class.std::deque" = type { %"class.std::_Deque_base" }
%"class.std::_Deque_base" = type { %"struct.std::_Deque_base<duckdb_re2::WalkState<duckdb_re2::Frag>, std::allocator<duckdb_re2::WalkState<duckdb_re2::Frag>>>::_Deque_impl" }
%"struct.std::_Deque_base<duckdb_re2::WalkState<duckdb_re2::Frag>, std::allocator<duckdb_re2::WalkState<duckdb_re2::Frag>>>::_Deque_impl" = type { %"struct.std::_Deque_base<duckdb_re2::WalkState<duckdb_re2::Frag>, std::allocator<duckdb_re2::WalkState<duckdb_re2::Frag>>>::_Deque_impl_data" }
%"struct.std::_Deque_base<duckdb_re2::WalkState<duckdb_re2::Frag>, std::allocator<duckdb_re2::WalkState<duckdb_re2::Frag>>>::_Deque_impl_data" = type { ptr, i64, %"struct.std::_Deque_iterator", %"struct.std::_Deque_iterator" }
%"struct.std::_Deque_iterator" = type { ptr, ptr, ptr, ptr }
%"class.duckdb_re2::PODArray" = type { %"class.std::unique_ptr" }
%"class.std::unique_ptr" = type { %"struct.std::__uniq_ptr_data" }
%"struct.std::__uniq_ptr_data" = type { %"class.std::__uniq_ptr_impl" }
%"class.std::__uniq_ptr_impl" = type { %"class.std::tuple" }
%"class.std::tuple" = type { %"struct.std::_Tuple_impl" }
%"struct.std::_Tuple_impl" = type { %"struct.std::_Tuple_impl.0", %"struct.std::_Head_base.1" }
%"struct.std::_Tuple_impl.0" = type { %"struct.std::_Head_base" }
%"struct.std::_Head_base" = type { %"struct.duckdb_re2::PODArray<duckdb_re2::Prog::Inst>::Deleter" }
%"struct.duckdb_re2::PODArray<duckdb_re2::Prog::Inst>::Deleter" = type { i32 }
%"struct.std::_Head_base.1" = type { ptr }
%"class.std::unordered_map" = type { %"class.std::_Hashtable" }
%"class.std::_Hashtable" = type { ptr, i64, %"struct.std::__detail::_Hash_node_base", i64, %"struct.std::__detail::_Prime_rehash_policy", ptr }
%"struct.std::__detail::_Hash_node_base" = type { ptr }
%"struct.std::__detail::_Prime_rehash_policy" = type { float, i64 }
%"struct.duckdb_re2::Frag" = type <{ i32, %"struct.duckdb_re2::PatchList", i8, [3 x i8] }>
%"class.duckdb_re2::Prog::Inst" = type { i32, %union.anon.25 }
%union.anon.25 = type { i32 }
%struct.anon.26 = type { i8, i8, i16 }

; Function Attrs: mustprogress nounwind uwtable
define linkonce_odr hidden noundef nonnull align 8 dereferenceable(8) ptr @_ZNSt10_Head_baseILm0EPN10duckdb_re24Prog4InstELb0EE7_M_headERKS4_(ptr noundef nonnull align 8 dereferenceable(8) %0) #1 comdat align 2 {
  %2 = alloca ptr, align 8
  store ptr %0, ptr %2, align 8, !tbaa !248
  %3 = load ptr, ptr %2, align 8, !tbaa !248
  %4 = getelementptr inbounds nuw %"struct.std::_Head_base.1", ptr %3, i32 0, i32 0
  ret ptr %4
}

; Function Attrs: mustprogress nounwind uwtable
define linkonce_odr hidden noundef nonnull align 8 dereferenceable(8) ptr @_ZNSt11_Tuple_implILm0EJPN10duckdb_re24Prog4InstENS0_8PODArrayIS2_E7DeleterEEE7_M_headERKS7_(ptr noundef nonnull align 8 dereferenceable(16) %0) #1 comdat align 2 {
  %2 = alloca ptr, align 8
  store ptr %0, ptr %2, align 8, !tbaa !246
  %3 = load ptr, ptr %2, align 8, !tbaa !246
  %4 = getelementptr inbounds i8, ptr %3, i64 8
  %5 = call noundef nonnull align 8 dereferenceable(8) ptr @_ZNSt10_Head_baseILm0EPN10duckdb_re24Prog4InstELb0EE7_M_headERKS4_(ptr noundef nonnull align 8 dereferenceable(8) %4) #18
  ret ptr %5
}

; Function Attrs: mustprogress nounwind uwtable
define linkonce_odr hidden noundef nonnull align 8 dereferenceable(8) ptr @_ZSt12__get_helperILm0EPN10duckdb_re24Prog4InstEJNS0_8PODArrayIS2_E7DeleterEEERKT0_RKSt11_Tuple_implIXT_EJS7_DpT1_EE(ptr noundef nonnull align 8 dereferenceable(16) %0) #1 comdat {
  %2 = alloca ptr, align 8
  store ptr %0, ptr %2, align 8, !tbaa !246
  %3 = load ptr, ptr %2, align 8, !tbaa !246
  %4 = call noundef nonnull align 8 dereferenceable(8) ptr @_ZNSt11_Tuple_implILm0EJPN10duckdb_re24Prog4InstENS0_8PODArrayIS2_E7DeleterEEE7_M_headERKS7_(ptr noundef nonnull align 8 dereferenceable(16) %3) #18
  ret ptr %4
}

; Function Attrs: mustprogress nounwind uwtable
define linkonce_odr hidden noundef nonnull align 8 dereferenceable(8) ptr @_ZSt3getILm0EJPN10duckdb_re24Prog4InstENS0_8PODArrayIS2_E7DeleterEEERKNSt13tuple_elementIXT_ESt5tupleIJDpT0_EEE4typeERKSB_(ptr noundef nonnull align 8 dereferenceable(16) %0) #1 comdat {
  %2 = alloca ptr, align 8
  store ptr %0, ptr %2, align 8, !tbaa !244
  %3 = load ptr, ptr %2, align 8, !tbaa !244
  %4 = call noundef nonnull align 8 dereferenceable(8) ptr @_ZSt12__get_helperILm0EPN10duckdb_re24Prog4InstEJNS0_8PODArrayIS2_E7DeleterEEERKT0_RKSt11_Tuple_implIXT_EJS7_DpT1_EE(ptr noundef nonnull align 8 dereferenceable(16) %3) #18
  ret ptr %4
}

; Function Attrs: mustprogress nounwind uwtable
define linkonce_odr hidden noundef ptr @_ZNKSt15__uniq_ptr_implIN10duckdb_re24Prog4InstENS0_8PODArrayIS2_E7DeleterEE6_M_ptrEv(ptr noundef nonnull align 8 dereferenceable(16) %0) #1 comdat align 2 {
  %2 = alloca ptr, align 8
  store ptr %0, ptr %2, align 8, !tbaa !240
  %3 = load ptr, ptr %2, align 8
  %4 = getelementptr inbounds nuw %"class.std::__uniq_ptr_impl", ptr %3, i32 0, i32 0
  %5 = call noundef nonnull align 8 dereferenceable(8) ptr @_ZSt3getILm0EJPN10duckdb_re24Prog4InstENS0_8PODArrayIS2_E7DeleterEEERKNSt13tuple_elementIXT_ESt5tupleIJDpT0_EEE4typeERKSB_(ptr noundef nonnull align 8 dereferenceable(16) %4) #18
  %6 = load ptr, ptr %5, align 8, !tbaa !73
  ret ptr %6
}

; Function Attrs: mustprogress nounwind uwtable
define linkonce_odr hidden noundef ptr @_ZNKSt10unique_ptrIA_N10duckdb_re24Prog4InstENS0_8PODArrayIS2_E7DeleterEE3getEv(ptr noundef nonnull align 8 dereferenceable(16) %0) #1 comdat align 2 {
  %2 = alloca ptr, align 8
  store ptr %0, ptr %2, align 8, !tbaa !236
  %3 = load ptr, ptr %2, align 8
  %4 = getelementptr inbounds nuw %"class.std::unique_ptr", ptr %3, i32 0, i32 0
  %5 = call noundef ptr @_ZNKSt15__uniq_ptr_implIN10duckdb_re24Prog4InstENS0_8PODArrayIS2_E7DeleterEE6_M_ptrEv(ptr noundef nonnull align 8 dereferenceable(16) %4) #18
  ret ptr %5
}

; Function Attrs: mustprogress nounwind uwtable
define linkonce_odr hidden noundef nonnull align 4 dereferenceable(8) ptr @_ZNKSt10unique_ptrIA_N10duckdb_re24Prog4InstENS0_8PODArrayIS2_E7DeleterEEixEm(ptr noundef nonnull align 8 dereferenceable(16) %0, i64 noundef %1) #1 comdat align 2 {
  %3 = alloca ptr, align 8
  %4 = alloca i64, align 8
  store ptr %0, ptr %3, align 8, !tbaa !236
  store i64 %1, ptr %4, align 8, !tbaa !84
  %5 = load ptr, ptr %3, align 8
  br label %6

6:                                                ; preds = %2
  br label %7

7:                                                ; preds = %6
  %8 = call noundef ptr @_ZNKSt10unique_ptrIA_N10duckdb_re24Prog4InstENS0_8PODArrayIS2_E7DeleterEE3getEv(ptr noundef nonnull align 8 dereferenceable(16) %5) #18
  %9 = load i64, ptr %4, align 8, !tbaa !84
  %10 = getelementptr inbounds nuw %"class.duckdb_re2::Prog::Inst", ptr %8, i64 %9
  ret ptr %10
}

; Function Attrs: mustprogress nounwind uwtable
define linkonce_odr hidden noundef i32 @_ZN10duckdb_re24Prog4Inst8foldcaseEv(ptr noundef nonnull align 4 dereferenceable(8) %0) #1 comdat align 2 {
  %2 = alloca ptr, align 8
  store ptr %0, ptr %2, align 8, !tbaa !73
  %3 = load ptr, ptr %2, align 8
  %4 = getelementptr inbounds nuw %"class.duckdb_re2::Prog::Inst", ptr %3, i32 0, i32 1
  %5 = getelementptr inbounds nuw %struct.anon.26, ptr %4, i32 0, i32 2
  %6 = load i16, ptr %5, align 2, !tbaa !78
  %7 = zext i16 %6 to i32
  %8 = and i32 %7, 1
  ret i32 %8
}

; Function Attrs: mustprogress nounwind uwtable
define linkonce_odr hidden noundef i32 @_ZN10duckdb_re24Prog4Inst2hiEv(ptr noundef nonnull align 4 dereferenceable(8) %0) #1 comdat align 2 {
  %2 = alloca ptr, align 8
  store ptr %0, ptr %2, align 8, !tbaa !73
  %3 = load ptr, ptr %2, align 8
  %4 = getelementptr inbounds nuw %"class.duckdb_re2::Prog::Inst", ptr %3, i32 0, i32 1
  %5 = getelementptr inbounds nuw %struct.anon.26, ptr %4, i32 0, i32 1
  %6 = load i8, ptr %5, align 1, !tbaa !78
  %7 = zext i8 %6 to i32
  ret i32 %7
}

; Function Attrs: mustprogress nounwind uwtable
define linkonce_odr hidden noundef i32 @_ZN10duckdb_re24Prog4Inst2loEv(ptr noundef nonnull align 4 dereferenceable(8) %0) #1 comdat align 2 {
  %2 = alloca ptr, align 8
  store ptr %0, ptr %2, align 8, !tbaa !73
  %3 = load ptr, ptr %2, align 8
  %4 = getelementptr inbounds nuw %"class.duckdb_re2::Prog::Inst", ptr %3, i32 0, i32 1
  %5 = getelementptr inbounds nuw %struct.anon.26, ptr %4, i32 0, i32 0
  %6 = load i8, ptr %5, align 4, !tbaa !78
  %7 = zext i8 %6 to i32
  ret i32 %7
}

; Function Attrs: mustprogress uwtable
define linkonce_odr hidden noundef nonnull align 4 dereferenceable(8) ptr @_ZNK10duckdb_re28PODArrayINS_4Prog4InstEEixEi(ptr noundef nonnull align 8 dereferenceable(16) %0, i32 noundef %1) #0 comdat align 2 {
  %3 = alloca ptr, align 8
  %4 = alloca i32, align 4
  store ptr %0, ptr %3, align 8, !tbaa !57
  store i32 %1, ptr %4, align 4, !tbaa !53
  %5 = load ptr, ptr %3, align 8
  %6 = getelementptr inbounds nuw %"class.duckdb_re2::PODArray", ptr %5, i32 0, i32 0
  %7 = load i32, ptr %4, align 4, !tbaa !53
  %8 = sext i32 %7 to i64
  %9 = call noundef nonnull align 4 dereferenceable(8) ptr @_ZNKSt10unique_ptrIA_N10duckdb_re24Prog4InstENS0_8PODArrayIS2_E7DeleterEEixEm(ptr noundef nonnull align 8 dereferenceable(16) %6, i64 noundef %8)
  ret ptr %9
}

; Function Attrs: mustprogress uwtable
define hidden noundef zeroext i1 @_ZN10duckdb_re28Compiler14ByteRangeEqualEii(ptr noundef nonnull align 8 dereferenceable(228) %0, i32 noundef %1, i32 noundef %2) #0 align 2 {
  %4 = alloca ptr, align 8
  %5 = alloca i32, align 4
  %6 = alloca i32, align 4
  store ptr %0, ptr %4, align 8, !tbaa !3
  store i32 %1, ptr %5, align 4, !tbaa !53
  store i32 %2, ptr %6, align 4, !tbaa !53
  %7 = load ptr, ptr %4, align 8
  %8 = getelementptr inbounds nuw %"class.duckdb_re2::Compiler", ptr %7, i32 0, i32 7
  %9 = load i32, ptr %5, align 4, !tbaa !53
  %10 = call noundef nonnull align 4 dereferenceable(8) ptr @_ZNK10duckdb_re28PODArrayINS_4Prog4InstEEixEi(ptr noundef nonnull align 8 dereferenceable(16) %8, i32 noundef %9)
  %11 = call noundef i32 @_ZN10duckdb_re24Prog4Inst2loEv(ptr noundef nonnull align 4 dereferenceable(8) %10)
  %12 = getelementptr inbounds nuw %"class.duckdb_re2::Compiler", ptr %7, i32 0, i32 7
  %13 = load i32, ptr %6, align 4, !tbaa !53
  %14 = call noundef nonnull align 4 dereferenceable(8) ptr @_ZNK10duckdb_re28PODArrayINS_4Prog4InstEEixEi(ptr noundef nonnull align 8 dereferenceable(16) %12, i32 noundef %13)
  %15 = call noundef i32 @_ZN10duckdb_re24Prog4Inst2loEv(ptr noundef nonnull align 4 dereferenceable(8) %14)
  %16 = icmp eq i32 %11, %15
  br i1 %16, label %17, label %37

17:                                               ; preds = %3
  %18 = getelementptr inbounds nuw %"class.duckdb_re2::Compiler", ptr %7, i32 0, i32 7
  %19 = load i32, ptr %5, align 4, !tbaa !53
  %20 = call noundef nonnull align 4 dereferenceable(8) ptr @_ZNK10duckdb_re28PODArrayINS_4Prog4InstEEixEi(ptr noundef nonnull align 8 dereferenceable(16) %18, i32 noundef %19)
  %21 = call noundef i32 @_ZN10duckdb_re24Prog4Inst2hiEv(ptr noundef nonnull align 4 dereferenceable(8) %20)
  %22 = getelementptr inbounds nuw %"class.duckdb_re2::Compiler", ptr %7, i32 0, i32 7
  %23 = load i32, ptr %6, align 4, !tbaa !53
  %24 = call noundef nonnull align 4 dereferenceable(8) ptr @_ZNK10duckdb_re28PODArrayINS_4Prog4InstEEixEi(ptr noundef nonnull align 8 dereferenceable(16) %22, i32 noundef %23)
  %25 = call noundef i32 @_ZN10duckdb_re24Prog4Inst2hiEv(ptr noundef nonnull align 4 dereferenceable(8) %24)
  %26 = icmp eq i32 %21, %25
  br i1 %26, label %27, label %37

27:                                               ; preds = %17
  %28 = getelementptr inbounds nuw %"class.duckdb_re2::Compiler", ptr %7, i32 0, i32 7
  %29 = load i32, ptr %5, align 4, !tbaa !53
  %30 = call noundef nonnull align 4 dereferenceable(8) ptr @_ZNK10duckdb_re28PODArrayINS_4Prog4InstEEixEi(ptr noundef nonnull align 8 dereferenceable(16) %28, i32 noundef %29)
  %31 = call noundef i32 @_ZN10duckdb_re24Prog4Inst8foldcaseEv(ptr noundef nonnull align 4 dereferenceable(8) %30)
  %32 = getelementptr inbounds nuw %"class.duckdb_re2::Compiler", ptr %7, i32 0, i32 7
  %33 = load i32, ptr %6, align 4, !tbaa !53
  %34 = call noundef nonnull align 4 dereferenceable(8) ptr @_ZNK10duckdb_re28PODArrayINS_4Prog4InstEEixEi(ptr noundef nonnull align 8 dereferenceable(16) %32, i32 noundef %33)
  %35 = call noundef i32 @_ZN10duckdb_re24Prog4Inst8foldcaseEv(ptr noundef nonnull align 4 dereferenceable(8) %34)
  %36 = icmp eq i32 %31, %35
  br label %37

37:                                               ; preds = %27, %17, %3
  %38 = phi i1 [ false, %17 ], [ false, %3 ], [ %36, %27 ]
  ret i1 %38
}