; Function Attrs: mustprogress nofree norecurse nosync nounwind willreturn memory(read, inaccessiblemem: none) uwtable
define hidden noundef zeroext i1 @_ZN10duckdb_re28Compiler14ByteRangeEqualEii(ptr noundef nonnull readonly align 8 captures(none) dereferenceable(228) %0, i32 noundef %1, i32 noundef %2) local_unnamed_addr #12 align 2 {
  %4 = sext i32 %1 to i64
  %5 = getelementptr inbounds nuw i8, ptr %0, i64 128
  %6 = load ptr, ptr %5, align 8, !tbaa !55
  %7 = getelementptr inbounds nuw %"class.duckdb_re2::Prog::Inst", ptr %6, i64 %4
  %8 = getelementptr inbounds nuw i8, ptr %7, i64 4
  %9 = load i8, ptr %8, align 4, !tbaa !75
  %10 = sext i32 %2 to i64
  %11 = getelementptr inbounds nuw %"class.duckdb_re2::Prog::Inst", ptr %6, i64 %10
  %12 = getelementptr inbounds nuw i8, ptr %11, i64 4
  %13 = load i8, ptr %12, align 4, !tbaa !75
  %14 = icmp eq i8 %9, %13
  br i1 %14, label %15, label %29

15:                                               ; preds = %3
  %16 = getelementptr inbounds nuw i8, ptr %7, i64 5
  %17 = load i8, ptr %16, align 1, !tbaa !75
  %18 = getelementptr inbounds nuw i8, ptr %11, i64 5
  %19 = load i8, ptr %18, align 1, !tbaa !75
  %20 = icmp eq i8 %17, %19
  br i1 %20, label %21, label %29

21:                                               ; preds = %15
  %22 = getelementptr inbounds nuw i8, ptr %7, i64 6
  %23 = load i16, ptr %22, align 2, !tbaa !75
  %24 = getelementptr inbounds nuw i8, ptr %11, i64 6
  %25 = load i16, ptr %24, align 2, !tbaa !75
  %26 = xor i16 %25, %23
  %27 = and i16 %26, 1
  %28 = icmp eq i16 %27, 0
  br label %29

29:                                               ; preds = %21, %15, %3
  %30 = phi i1 [ false, %15 ], [ false, %3 ], [ %28, %21 ]
  ret i1 %30
}